; Function Attrs: nounwind uwtable
define ptr @l___private_Lean_Elab_MutualInductive_0__Lean_Elab_Command_applyComputedFields___lambda__2___boxed(ptr noundef %0, ptr noundef %1, ptr noundef %2, ptr noundef %3, ptr noundef %4, ptr noundef %5, ptr noundef %6, ptr noundef %7) #1 {
  %9 = tail call ptr @l_Lean_Elab_ComputedFields_setComputedFields(ptr noundef %0, ptr noundef %3, ptr noundef %4, ptr noundef %5, ptr noundef %6, ptr noundef %7) #5
  %10 = ptrtoint ptr %2 to i64
  %11 = and i64 %10, 1
  %.not = icmp eq i64 %11, 0
  br i1 %.not, label %12, label %lean_dec.exit11

12:                                               ; preds = %8
  %13 = load i32, ptr %2, align 4, !tbaa !8
  %14 = icmp sgt i32 %13, 1
  br i1 %14, label %15, label %17, !prof !11

15:                                               ; preds = %12
  %16 = add nsw i32 %13, -1
  store i32 %16, ptr %2, align 4, !tbaa !8
  br label %lean_dec.exit11

17:                                               ; preds = %12
  %.not.i = icmp eq i32 %13, 0
  br i1 %.not.i, label %lean_dec.exit11, label %18

18:                                               ; preds = %17
  tail call void @lean_dec_ref_cold(ptr noundef nonnull %2) #5
  br label %lean_dec.exit11

lean_dec.exit11:                                  ; preds = %18, %17, %15, %8
  %19 = ptrtoint ptr %1 to i64
  %20 = and i64 %19, 1
  %.not14 = icmp eq i64 %20, 0
  br i1 %.not14, label %21, label %lean_dec.exit

21:                                               ; preds = %lean_dec.exit11
  %22 = load i32, ptr %1, align 4, !tbaa !8
  %23 = icmp sgt i32 %22, 1
  br i1 %23, label %24, label %26, !prof !11

24:                                               ; preds = %21
  %25 = add nsw i32 %22, -1
  store i32 %25, ptr %1, align 4, !tbaa !8
  br label %lean_dec.exit

26:                                               ; preds = %21
  %.not.i12 = icmp eq i32 %22, 0
  br i1 %.not.i12, label %lean_dec.exit, label %27

27:                                               ; preds = %26
  tail call void @lean_dec_ref_cold(ptr noundef nonnull %1) #5
  br label %lean_dec.exit

lean_dec.exit:                                    ; preds = %27, %26, %24, %lean_dec.exit11
  ret ptr %9
}